target datalayout = "e-m:e-p270:32:32-p271:32:32-p272:64:64-i64:64-i128:128-f80:128-n8:16:32:64-S128"
target triple = "x86_64-pc-linux-gnu"

%"class.cvc5::internal::EnvObj" = type { ptr, ptr }
%"class.cvc5::internal::NodeTemplate" = type { ptr }
%"class.cvc5::internal::NodeTemplate.273" = type { ptr }

; Function Attrs: mustprogress nounwind uwtable
define linkonce_odr hidden void @_ZN4cvc58internal12NodeTemplateILb0EED2Ev(ptr noundef nonnull align 8 dereferenceable(8) %0) unnamed_addr #4 comdat align 2 {
  %2 = alloca ptr, align 8
  store ptr %0, ptr %2, align 8, !tbaa !14
  ret void
}

; Function Attrs: mustprogress nounwind uwtable
define linkonce_odr hidden void @_ZN4cvc58internal12NodeTemplateILb0EEC2ERKS2_(ptr noundef nonnull align 8 dereferenceable(8) %0, ptr noundef nonnull align 8 dereferenceable(8) %1) unnamed_addr #4 comdat align 2 {
  %3 = alloca ptr, align 8
  %4 = alloca ptr, align 8
  store ptr %0, ptr %3, align 8, !tbaa !14
  store ptr %1, ptr %4, align 8, !tbaa !14
  %5 = load ptr, ptr %3, align 8
  %6 = load ptr, ptr %4, align 8, !tbaa !14
  %7 = getelementptr inbounds nuw %"class.cvc5::internal::NodeTemplate.273", ptr %6, i32 0, i32 0
  %8 = load ptr, ptr %7, align 8, !tbaa !16
  %9 = getelementptr inbounds nuw %"class.cvc5::internal::NodeTemplate.273", ptr %5, i32 0, i32 0
  store ptr %8, ptr %9, align 8, !tbaa !16
  ret void
}

; Function Attrs: mustprogress uwtable
define hidden void @_ZNK4cvc58internal6EnvObj8evaluateENS0_12NodeTemplateILb0EEERKSt6vectorINS2_ILb1EEESaIS5_EES9_RKSt13unordered_mapIS5_S5_St4hashIS5_ESt8equal_toIS5_ESaISt4pairIKS5_S5_EEEb(ptr dead_on_unwind noalias writable sret(%"class.cvc5::internal::NodeTemplate") align 8 %0, ptr noundef nonnull align 8 dereferenceable(16) %1, ptr noundef %2, ptr noundef nonnull align 1 %3, ptr noundef nonnull align 1 %4, ptr noundef nonnull align 8 dereferenceable(56) %5, i1 noundef zeroext %6) #5 align 2 personality ptr @__gxx_personality_v0 {
  %8 = alloca ptr, align 8
  %9 = alloca ptr, align 8
  %10 = alloca ptr, align 8
  %11 = alloca ptr, align 8
  %12 = alloca ptr, align 8
  %13 = alloca ptr, align 8
  %14 = alloca i8, align 1
  %15 = alloca %"class.cvc5::internal::NodeTemplate.273", align 8
  %16 = alloca ptr, align 8
  %17 = alloca i32, align 4
  store ptr %0, ptr %8, align 8
  store ptr %1, ptr %9, align 8, !tbaa !3
  store ptr %2, ptr %10, align 8, !tbaa !14
  store ptr %3, ptr %11, align 8, !tbaa !23
  store ptr %4, ptr %12, align 8, !tbaa !23
  store ptr %5, ptr %13, align 8, !tbaa !25
  %18 = zext i1 %6 to i8
  store i8 %18, ptr %14, align 1, !tbaa !19
  %19 = load ptr, ptr %9, align 8
  %20 = getelementptr inbounds nuw %"class.cvc5::internal::EnvObj", ptr %19, i32 0, i32 1
  %21 = load ptr, ptr %20, align 8, !tbaa !12
  call void @_ZN4cvc58internal12NodeTemplateILb0EEC2ERKS2_(ptr noundef nonnull align 8 dereferenceable(8) %15, ptr noundef nonnull align 8 dereferenceable(8) %2)
  %22 = load ptr, ptr %11, align 8, !tbaa !23
  %23 = load ptr, ptr %12, align 8, !tbaa !23
  %24 = load ptr, ptr %13, align 8, !tbaa !25
  %25 = load i8, ptr %14, align 1, !tbaa !19, !range !21, !noundef !22
  %26 = trunc i8 %25 to i1
  invoke void @_ZNK4cvc58internal3Env8evaluateENS0_12NodeTemplateILb0EEERKSt6vectorINS2_ILb1EEESaIS5_EES9_RKSt13unordered_mapIS5_S5_St4hashIS5_ESt8equal_toIS5_ESaISt4pairIKS5_S5_EEEb(ptr dead_on_unwind writable sret(%"class.cvc5::internal::NodeTemplate") align 8 %0, ptr noundef nonnull align 8 dereferenceable(696) %21, ptr noundef %15, ptr noundef nonnull align 1 %22, ptr noundef nonnull align 1 %23, ptr noundef nonnull align 8 dereferenceable(56) %24, i1 noundef zeroext %26)
          to label %27 unwind label %28

27:                                               ; preds = %7
  call void @_ZN4cvc58internal12NodeTemplateILb0EED2Ev(ptr noundef nonnull align 8 dereferenceable(8) %15) #3
  ret void

28:                                               ; preds = %7
  %29 = landingpad { ptr, i32 }
          cleanup
  %30 = extractvalue { ptr, i32 } %29, 0
  store ptr %30, ptr %16, align 8
  %31 = extractvalue { ptr, i32 } %29, 1
  store i32 %31, ptr %17, align 4
  call void @_ZN4cvc58internal12NodeTemplateILb0EED2Ev(ptr noundef nonnull align 8 dereferenceable(8) %15) #3
  br label %32

32:                                               ; preds = %28
  %33 = load ptr, ptr %16, align 8
  %34 = load i32, ptr %17, align 4
  %35 = insertvalue { ptr, i32 } poison, ptr %33, 0
  %36 = insertvalue { ptr, i32 } %35, i32 %34, 1
  resume { ptr, i32 } %36
}