; Function Attrs: mustprogress uwtable
define hidden void @_ZNK4cvc58internal6EnvObj8evaluateENS0_12NodeTemplateILb0EEERKSt6vectorINS2_ILb1EEESaIS5_EES9_RKSt13unordered_mapIS5_S5_St4hashIS5_ESt8equal_toIS5_ESaISt4pairIKS5_S5_EEEb(ptr dead_on_unwind noalias writable sret(%"class.cvc5::internal::NodeTemplate") align 8 %0, ptr noundef nonnull readonly align 8 captures(none) dereferenceable(16) %1, ptr noundef readonly captures(none) %2, ptr noundef nonnull align 1 %3, ptr noundef nonnull align 1 %4, ptr noundef nonnull align 8 dereferenceable(56) %5, i1 noundef zeroext %6) local_unnamed_addr #4 align 2 personality ptr @__gxx_personality_v0 {
  %8 = alloca %"class.cvc5::internal::NodeTemplate.273", align 8
  %9 = getelementptr inbounds nuw i8, ptr %1, i64 8
  %10 = load ptr, ptr %9, align 8, !tbaa !10
  %11 = load ptr, ptr %2, align 8, !tbaa !12
  store ptr %11, ptr %8, align 8, !tbaa !12
  call void @_ZNK4cvc58internal3Env8evaluateENS0_12NodeTemplateILb0EEERKSt6vectorINS2_ILb1EEESaIS5_EES9_RKSt13unordered_mapIS5_S5_St4hashIS5_ESt8equal_toIS5_ESaISt4pairIKS5_S5_EEEb(ptr dead_on_unwind writable sret(%"class.cvc5::internal::NodeTemplate") align 8 %0, ptr noundef nonnull align 8 dereferenceable(696) %10, ptr noundef nonnull %8, ptr noundef nonnull align 1 %3, ptr noundef nonnull align 1 %4, ptr noundef nonnull align 8 dereferenceable(56) %5, i1 noundef zeroext %6)
  ret void
}